(lp0
ccopy_reg
_reconstructor
p1
(cinfrastructure
Counter
p2
c__builtin__
dict
p3
(dp4
g1
(cfeatures
PlayScrew
p5
c__builtin__
object
p6
Ntp7
Rp8
F0.5357389309954683
sg1
(cfeatures
MajorityPercent
p9
g6
Ntp10
Rp11
F3.886349923083463
sg1
(cfeatures
PoisonCount
p12
g6
Ntp13
Rp14
F-0.6332675758557156
sg1
(cfeatures
ScrewCount
p15
g6
Ntp16
Rp17
F0.36756069406501124
sg1
(cfeatures
SizeofHand
p18
g6
Ntp19
Rp20
F-0.07695475575449745
sg1
(cfeatures
WildValue
p21
g6
Ntp22
Rp23
F0.30116380238740903
sg1
(cfeatures
WildSuit
p24
g6
Ntp25
Rp26
F0.16467159132435885
sg1
(cfeatures
PlaySkip
p27
g6
Ntp28
Rp29
F0.22895682817144852
sg1
(cfeatures
SkipCount
p30
g6
Ntp31
Rp32
F0.7447679665062062
sg1
(cfeatures
Illegality
p33
g6
Ntp34
Rp35
(dp36
S'checker'
p37
g1
(cinfrastructure
Checker
p38
g6
Ntp39
Rp40
(dp41
S'basicValueConstraint'
p42
g1
(cconstraints
BasicValueConstraint
p43
g6
Ntp44
Rp45
(dp46
S'greater'
p47
I01
sbsS'lastCard'
p48
g1
(cinfrastructure
Card
p49
c__builtin__
tuple
p50
(I8
S'H'
p51
tp52
tp53
Rp54
sS'basicSuitConstraint'
p55
g1
(cconstraints
BasicSuitConstraint
p56
g6
Ntp57
Rp58
sS'wildValueConstraint'
p59
g1
(cconstraints
WildValueConstraint
p60
g6
Ntp61
Rp62
(dp63
S'wildValue'
p64
I5
sbsS'poisonDistanceConstraint'
p65
g1
(cconstraints
PoisonDistanceConstraint
p66
g6
Ntp67
Rp68
(dp69
S'dist'
p70
I1
sbsS'wildSuitEffect'
p71
g1
(cconstraints
WildSuitEffect
p72
g6
Ntp73
Rp74
(dp75
S'wildSuit'
p76
g51
sbsbsbF-2.672487602011818
sg1
(cfeatures
HighCount
p77
g6
Ntp78
Rp79
F0.9786445625550804
sg1
(cfeatures
LowCount
p80
g6
Ntp81
Rp82
F-0.8249907136055726
stp83
Rp84
ag1
(g2
g3
(dp85
g1
(g80
g6
Ntp86
Rp87
F0.15754798204530054
sg1
(g24
g6
Ntp88
Rp89
F0.9681416574159744
sg1
(g27
g6
Ntp90
Rp91
F0.31511094521377175
sg1
(g18
g6
Ntp92
Rp93
F-0.19122601727013439
sg1
(g12
g6
Ntp94
Rp95
F-0.5861272002060813
sg1
(g77
g6
Ntp96
Rp97
F0.7425940466739561
sg1
(g5
g6
Ntp98
Rp99
F1.1536743546679695
sg1
(g33
g6
Ntp100
Rp101
(dp102
g37
g1
(g38
g6
Ntp103
Rp104
(dp105
g42
g1
(g43
g6
Ntp106
Rp107
(dp108
g47
I01
sbsg48
g1
(g49
g50
(I12
S'D'
p109
tp110
tp111
Rp112
sg55
g1
(g56
g6
Ntp113
Rp114
sg59
g1
(g60
g6
Ntp115
Rp116
(dp117
g64
I13
sbsg65
g1
(g66
g6
Ntp118
Rp119
(dp120
g70
Nsbsg71
g1
(g72
g6
Ntp121
Rp122
(dp123
g76
S'C'
p124
sbsbsbF-3.5702635852710145
sg1
(g15
g6
Ntp125
Rp126
F1.5034089998697824
sg1
(g21
g6
Ntp127
Rp128
F0.3411515644990109
sg1
(g30
g6
Ntp129
Rp130
F0.4614676376729097
sg1
(g9
g6
Ntp131
Rp132
F6.521617723947844
stp133
Rp134
ag1
(g2
g3
(dp135
g1
(g5
g6
Ntp136
Rp137
F1.1536743546679695
sg1
(g15
g6
Ntp138
Rp139
F1.5034089998697824
sg1
(g12
g6
Ntp140
Rp141
F-0.5861272002060813
sg1
(g21
g6
Ntp142
Rp143
F0.3411515644990109
sg1
(g30
g6
Ntp144
Rp145
F0.48640905197143436
sg1
(g9
g6
Ntp146
Rp147
F6.307718715306192
sg1
(g80
g6
Ntp148
Rp149
F-0.5990704334784831
sg1
(g33
g6
Ntp150
Rp151
(dp152
g37
g1
(g38
g6
Ntp153
Rp154
(dp155
g42
g1
(g43
g6
Ntp156
Rp157
(dp158
g47
I00
sbsg48
g1
(g49
g50
(I8
S'S'
p159
tp160
tp161
Rp162
sg55
g1
(g56
g6
Ntp163
Rp164
sg59
g1
(g60
g6
Ntp165
Rp166
(dp167
g64
Nsbsg65
g1
(g66
g6
Ntp168
Rp169
(dp170
g70
Nsbsg71
g1
(g72
g6
Ntp171
Rp172
(dp173
g76
g124
sbsbsbF-3.4293970095248327
sg1
(g24
g6
Ntp174
Rp175
F0.8626012939080333
sg1
(g27
g6
Ntp176
Rp177
F0.323118566305403
sg1
(g77
g6
Ntp178
Rp179
F0.618683473957881
sg1
(g18
g6
Ntp180
Rp181
F-1.5908356308706886
stp182
Rp183
ag1
(g2
g3
(dp184
g1
(g15
g6
Ntp185
Rp186
F1.5034089998697824
sg1
(g80
g6
Ntp187
Rp188
F-0.5150941718748501
sg1
(g21
g6
Ntp189
Rp190
F0.3411515644990109
sg1
(g33
g6
Ntp191
Rp192
(dp193
g37
g1
(g38
g6
Ntp194
Rp195
(dp196
g42
g1
(g43
g6
Ntp197
Rp198
(dp199
g47
I01
sbsg48
g1
(g49
g50
(I14
g51
tp200
tp201
Rp202
sg55
g1
(g56
g6
Ntp203
Rp204
sg59
g1
(g60
g6
Ntp205
Rp206
(dp207
g64
I13
sbsg65
g1
(g66
g6
Ntp208
Rp209
(dp210
g70
Nsbsg71
g1
(g72
g6
Ntp211
Rp212
(dp213
g76
NsbsbsbF-3.4293970095248327
sg1
(g24
g6
Ntp214
Rp215
F0.8626012939080333
sg1
(g12
g6
Ntp216
Rp217
F-0.5861272002060813
sg1
(g9
g6
Ntp218
Rp219
F6.468238012497711
sg1
(g27
g6
Ntp220
Rp221
F0.323118566305403
sg1
(g30
g6
Ntp222
Rp223
F0.48640905197143436
sg1
(g77
g6
Ntp224
Rp225
F0.6863008694624355
sg1
(g5
g6
Ntp226
Rp227
F1.1536743546679695
sg1
(g18
g6
Ntp228
Rp229
F-1.0472722977712927
stp230
Rp231
ag1
(g2
g3
(dp232
g1
(g33
g6
Ntp233
Rp234
(dp235
g37
g1
(g38
g6
Ntp236
Rp237
(dp238
g42
g1
(g43
g6
Ntp239
Rp240
(dp241
g47
I00
sbsg48
g1
(g49
g50
(I3
g51
tp242
tp243
Rp244
sg55
g1
(g56
g6
Ntp245
Rp246
sg59
g1
(g60
g6
Ntp247
Rp248
(dp249
g64
Nsbsg65
g1
(g66
g6
Ntp250
Rp251
(dp252
g70
I1
sbsg71
g1
(g72
g6
Ntp253
Rp254
(dp255
g76
NsbsbsbF-3.3832295548499736
sg1
(g5
g6
Ntp256
Rp257
F1.1536743546679695
sg1
(g15
g6
Ntp258
Rp259
F1.5034089998697824
sg1
(g12
g6
Ntp260
Rp261
F-0.5861272002060813
sg1
(g24
g6
Ntp262
Rp263
F0.8626012939080333
sg1
(g30
g6
Ntp264
Rp265
F0.48640905197143436
sg1
(g9
g6
Ntp266
Rp267
F6.723753872952446
sg1
(g18
g6
Ntp268
Rp269
F-0.139499464326643
sg1
(g21
g6
Ntp270
Rp271
F0.3411515644990109
sg1
(g27
g6
Ntp272
Rp273
F0.323118566305403
sg1
(g77
g6
Ntp274
Rp275
F0.9303650808448911
sg1
(g80
g6
Ntp276
Rp277
F-0.2998743956450642
stp278
Rp279
ag1
(g2
g3
(dp280
g1
(g30
g6
Ntp281
Rp282
F0.48640905197143436
sg1
(g9
g6
Ntp283
Rp284
F6.463892651531143
sg1
(g21
g6
Ntp285
Rp286
F0.3411515644990109
sg1
(g80
g6
Ntp287
Rp288
F-0.9060633952219933
sg1
(g33
g6
Ntp289
Rp290
(dp291
g37
g1
(g38
g6
Ntp292
Rp293
(dp294
g42
g1
(g43
g6
Ntp295
Rp296
(dp297
g47
I01
sbsg48
g1
(g49
g50
(I14
g124
tp298
tp299
Rp300
sg55
g1
(g56
g6
Ntp301
Rp302
sg59
g1
(g60
g6
Ntp303
Rp304
(dp305
g64
Nsbsg65
g1
(g66
g6
Ntp306
Rp307
(dp308
g70
Nsbsg71
g1
(g72
g6
Ntp309
Rp310
(dp311
g76
NsbsbsbF-3.4457549918862367
sg1
(g15
g6
Ntp312
Rp313
F1.5034089998697824
sg1
(g18
g6
Ntp314
Rp315
F-0.6597886302895744
sg1
(g5
g6
Ntp316
Rp317
F1.1536743546679695
sg1
(g77
g6
Ntp318
Rp319
F1.0552234642539209
sg1
(g27
g6
Ntp320
Rp321
F0.323118566305403
sg1
(g12
g6
Ntp322
Rp323
F-0.5861272002060813
sg1
(g24
g6
Ntp324
Rp325
F0.8626012939080333
stp326
Rp327
ag1
(g2
g3
(dp328
g1
(g5
g6
Ntp329
Rp330
F1.1536743546679695
sg1
(g15
g6
Ntp331
Rp332
F1.5034089998697824
sg1
(g24
g6
Ntp333
Rp334
F0.8626012939080333
sg1
(g21
g6
Ntp335
Rp336
F0.3411515644990109
sg1
(g27
g6
Ntp337
Rp338
F0.323118566305403
sg1
(g30
g6
Ntp339
Rp340
F0.48640905197143436
sg1
(g12
g6
Ntp341
Rp342
F-0.5861272002060813
sg1
(g80
g6
Ntp343
Rp344
F-0.8489935621555322
sg1
(g33
g6
Ntp345
Rp346
(dp347
g37
g1
(g38
g6
Ntp348
Rp349
(dp350
g42
g1
(g43
g6
Ntp351
Rp352
(dp353
g47
I01
sbsg48
g1
(g49
g50
(I14
g51
tp354
tp355
Rp356
sg55
g1
(g56
g6
Ntp357
Rp358
sg59
g1
(g60
g6
Ntp359
Rp360
(dp361
g64
Nsbsg65
g1
(g66
g6
Ntp362
Rp363
(dp364
g70
Nsbsg71
g1
(g72
g6
Ntp365
Rp366
(dp367
g76
NsbsbsbF-3.4457549918862367
sg1
(g18
g6
Ntp368
Rp369
F-0.3622963081079878
sg1
(g77
g6
Ntp370
Rp371
F1.2333844557901514
sg1
(g9
g6
Ntp372
Rp373
F6.565852591327459
stp374
Rp375
ag1
(g2
g3
(dp376
g1
(g5
g6
Ntp377
Rp378
F1.1536743546679695
sg1
(g24
g6
Ntp379
Rp380
F0.8626012939080333
sg1
(g30
g6
Ntp381
Rp382
F0.48640905197143436
sg1
(g21
g6
Ntp383
Rp384
F0.6147017024148476
sg1
(g9
g6
Ntp385
Rp386
F6.713430532008135
sg1
(g15
g6
Ntp387
Rp388
F1.5034089998697824
sg1
(g77
g6
Ntp389
Rp390
F1.2094344476168015
sg1
(g27
g6
Ntp391
Rp392
F0.323118566305403
sg1
(g18
g6
Ntp393
Rp394
F-0.11948785009961406
sg1
(g12
g6
Ntp395
Rp396
F-0.5861272002060813
sg1
(g80
g6
Ntp397
Rp398
F-0.7075048581362945
sg1
(g33
g6
Ntp399
Rp400
(dp401
g37
g1
(g38
g6
Ntp402
Rp403
(dp404
g42
g1
(g43
g6
Ntp405
Rp406
(dp407
g47
I00
sbsg48
g1
(g49
g50
(I12
g124
tp408
tp409
Rp410
sg55
g1
(g56
g6
Ntp411
Rp412
sg59
g1
(g60
g6
Ntp413
Rp414
(dp415
g64
I2
sbsg65
g1
(g66
g6
Ntp416
Rp417
(dp418
g70
I1
sbsg71
g1
(g72
g6
Ntp419
Rp420
(dp421
g76
NsbsbsbF-3.2977898551845164
stp422
Rp423
ag1
(g2
g3
(dp424
g1
(g5
g6
Ntp425
Rp426
F1.1536743546679695
sg1
(g15
g6
Ntp427
Rp428
F1.5034089998697824
sg1
(g21
g6
Ntp429
Rp430
F0.6147017024148476
sg1
(g30
g6
Ntp431
Rp432
F0.48640905197143436
sg1
(g27
g6
Ntp433
Rp434
F0.323118566305403
sg1
(g9
g6
Ntp435
Rp436
F6.494842842330751
sg1
(g33
g6
Ntp437
Rp438
(dp439
g37
g1
(g38
g6
Ntp440
Rp441
(dp442
g42
g1
(g43
g6
Ntp443
Rp444
(dp445
g47
I00
sbsg48
g1
(g49
g50
(I2
g159
tp446
tp447
Rp448
sg55
g1
(g56
g6
Ntp449
Rp450
sg59
g1
(g60
g6
Ntp451
Rp452
(dp453
g64
Nsbsg65
g1
(g66
g6
Ntp454
Rp455
(dp456
g70
Nsbsg71
g1
(g72
g6
Ntp457
Rp458
(dp459
g76
NsbsbsbF-3.1877380730130405
sg1
(g18
g6
Ntp460
Rp461
F-1.5508844705309093
sg1
(g24
g6
Ntp462
Rp463
F0.8626012939080333
sg1
(g12
g6
Ntp464
Rp465
F-0.5861272002060813
sg1
(g77
g6
Ntp466
Rp467
F0.6539995755623792
sg1
(g80
g6
Ntp468
Rp469
F-1.010866181286602
stp470
Rp471
ag1
(g2
g3
(dp472
g1
(g27
g6
Ntp473
Rp474
F0.323118566305403
sg1
(g77
g6
Ntp475
Rp476
F0.7749612936900071
sg1
(g5
g6
Ntp477
Rp478
F1.1536743546679695
sg1
(g15
g6
Ntp479
Rp480
F1.5034089998697824
sg1
(g24
g6
Ntp481
Rp482
F0.8626012939080333
sg1
(g80
g6
Ntp483
Rp484
F-0.9530314133361166
sg1
(g21
g6
Ntp485
Rp486
F0.6389492348370385
sg1
(g18
g6
Ntp487
Rp488
F-1.2175764380862812
sg1
(g30
g6
Ntp489
Rp490
F0.48640905197143436
sg1
(g12
g6
Ntp491
Rp492
F-0.6621340146207908
sg1
(g9
g6
Ntp493
Rp494
F6.486876818047016
sg1
(g33
g6
Ntp495
Rp496
(dp497
g37
g1
(g38
g6
Ntp498
Rp499
(dp500
g42
g1
(g43
g6
Ntp501
Rp502
(dp503
g47
I01
sbsg48
g1
(g49
g50
(I11
g124
tp504
tp505
Rp506
sg55
g1
(g56
g6
Ntp507
Rp508
sg59
g1
(g60
g6
Ntp509
Rp510
(dp511
g64
I12
sbsg65
g1
(g66
g6
Ntp512
Rp513
(dp514
g70
Nsbsg71
g1
(g72
g6
Ntp515
Rp516
(dp517
g76
NsbsbsbF-3.277620594081967
stp518
Rp519
ag1
(g2
g3
(dp520
g1
(g18
g6
Ntp521
Rp522
F-0.8955649935724321
sg1
(g77
g6
Ntp523
Rp524
F1.102577586527553
sg1
(g27
g6
Ntp525
Rp526
F0.323118566305403
sg1
(g9
g6
Ntp527
Rp528
F6.612598866473393
sg1
(g24
g6
Ntp529
Rp530
F0.8626012939080333
sg1
(g21
g6
Ntp531
Rp532
F0.6389492348370385
sg1
(g5
g6
Ntp533
Rp534
F1.1536743546679695
sg1
(g30
g6
Ntp535
Rp536
F0.48640905197143436
sg1
(g12
g6
Ntp537
Rp538
F-0.6621340146207908
sg1
(g33
g6
Ntp539
Rp540
(dp541
g37
g1
(g38
g6
Ntp542
Rp543
(dp544
g42
g1
(g43
g6
Ntp545
Rp546
(dp547
g47
I01
sbsg48
g1
(g49
g50
(I12
g109
tp548
tp549
Rp550
sg55
g1
(g56
g6
Ntp551
Rp552
sg59
g1
(g60
g6
Ntp553
Rp554
(dp555
g64
Nsbsg65
g1
(g66
g6
Ntp556
Rp557
(dp558
g70
I1
sbsg71
g1
(g72
g6
Ntp559
Rp560
(dp561
g76
NsbsbsbF-3.2658819747603065
sg1
(g80
g6
Ntp562
Rp563
F-0.867826314921097
sg1
(g15
g6
Ntp564
Rp565
F1.5034089998697824
stp566
Rp567
ag1
(g2
g3
(dp568
g1
(g27
g6
Ntp569
Rp570
F0.323118566305403
sg1
(g77
g6
Ntp571
Rp572
F1.0800553796453942
sg1
(g5
g6
Ntp573
Rp574
F1.1536743546679695
sg1
(g15
g6
Ntp575
Rp576
F1.5034089998697824
sg1
(g33
g6
Ntp577
Rp578
(dp579
g37
g1
(g38
g6
Ntp580
Rp581
(dp582
g42
g1
(g43
g6
Ntp583
Rp584
(dp585
g47
I01
sbsg48
g1
(g49
g50
(I6
g109
tp586
tp587
Rp588
sg55
g1
(g56
g6
Ntp589
Rp590
sg59
g1
(g60
g6
Ntp591
Rp592
(dp593
g64
Nsbsg65
g1
(g66
g6
Ntp594
Rp595
(dp596
g70
Nsbsg71
g1
(g72
g6
Ntp597
Rp598
(dp599
g76
NsbsbsbF-3.2486964971801613
sg1
(g21
g6
Ntp600
Rp601
F0.6389492348370385
sg1
(g80
g6
Ntp602
Rp603
F-0.8396919262905987
sg1
(g24
g6
Ntp604
Rp605
F0.8626012939080333
sg1
(g12
g6
Ntp606
Rp607
F-0.6621340146207908
sg1
(g9
g6
Ntp608
Rp609
F6.745689640049669
sg1
(g18
g6
Ntp610
Rp611
F-0.6109950167227564
sg1
(g30
g6
Ntp612
Rp613
F0.48640905197143436
stp614
Rp615
ag1
(g2
g3
(dp616
g1
(g33
g6
Ntp617
Rp618
(dp619
g37
g1
(g38
g6
Ntp620
Rp621
(dp622
g42
g1
(g43
g6
Ntp623
Rp624
(dp625
g47
I01
sbsg48
g1
(g49
g50
(I8
g124
tp626
tp627
Rp628
sg55
g1
(g56
g6
Ntp629
Rp630
sg59
g1
(g60
g6
Ntp631
Rp632
(dp633
g64
Nsbsg65
g1
(g66
g6
Ntp634
Rp635
(dp636
g70
I2
sbsg71
g1
(g72
g6
Ntp637
Rp638
(dp639
g76
NsbsbsbF-3.216752366064654
sg1
(g77
g6
Ntp640
Rp641
F1.0800553796453942
sg1
(g18
g6
Ntp642
Rp643
F0.366220371982782
sg1
(g80
g6
Ntp644
Rp645
F-0.20756338058651855
sg1
(g24
g6
Ntp646
Rp647
F0.8626012939080333
sg1
(g12
g6
Ntp648
Rp649
F-0.6621340146207908
sg1
(g15
g6
Ntp650
Rp651
F1.5034089998697824
sg1
(g27
g6
Ntp652
Rp653
F0.323118566305403
sg1
(g21
g6
Ntp654
Rp655
F0.6389492348370385
sg1
(g5
g6
Ntp656
Rp657
F1.1536743546679695
sg1
(g9
g6
Ntp658
Rp659
F6.861305593883925
sg1
(g30
g6
Ntp660
Rp661
F0.48640905197143436
stp662
Rp663
ag1
(g2
g3
(dp664
g1
(g24
g6
Ntp665
Rp666
F0.8626012939080333
sg1
(g12
g6
Ntp667
Rp668
F-0.6621340146207908
sg1
(g30
g6
Ntp669
Rp670
F0.48640905197143436
sg1
(g80
g6
Ntp671
Rp672
F-0.04504018840620638
sg1
(g27
g6
Ntp673
Rp674
F0.323118566305403
sg1
(g77
g6
Ntp675
Rp676
F0.9514622040136936
sg1
(g5
g6
Ntp677
Rp678
F1.1536743546679695
sg1
(g33
g6
Ntp679
Rp680
(dp681
g37
g1
(g38
g6
Ntp682
Rp683
(dp684
g42
g1
(g43
g6
Ntp685
Rp686
(dp687
g47
I01
sbsg48
g1
(g49
g50
(I6
g159
tp688
tp689
Rp690
sg55
g1
(g56
g6
Ntp691
Rp692
sg59
g1
(g60
g6
Ntp693
Rp694
(dp695
g64
Nsbsg65
g1
(g66
g6
Ntp696
Rp697
(dp698
g70
I2
sbsg71
g1
(g72
g6
Ntp699
Rp700
(dp701
g76
NsbsbsbF-3.1647248753209802
sg1
(g15
g6
Ntp702
Rp703
F1.5034089998697824
sg1
(g18
g6
Ntp704
Rp705
F0.40044487165000897
sg1
(g21
g6
Ntp706
Rp707
F0.6389492348370385
sg1
(g9
g6
Ntp708
Rp709
F7.024758776385557
stp710
Rp711
ag1
(g2
g3
(dp712
g1
(g18
g6
Ntp713
Rp714
F-1.0814932375636974
sg1
(g15
g6
Ntp715
Rp716
F1.5034089998697824
sg1
(g80
g6
Ntp717
Rp718
F-0.5466868677847506
sg1
(g33
g6
Ntp719
Rp720
(dp721
g37
g1
(g38
g6
Ntp722
Rp723
(dp724
g42
g1
(g43
g6
Ntp725
Rp726
(dp727
g47
I01
sbsg48
g1
(g49
g50
(I14
g124
tp728
tp729
Rp730
sg55
g1
(g56
g6
Ntp731
Rp732
sg59
g1
(g60
g6
Ntp733
Rp734
(dp735
g64
Nsbsg65
g1
(g66
g6
Ntp736
Rp737
(dp738
g70
Nsbsg71
g1
(g72
g6
Ntp739
Rp740
(dp741
g76
g124
sbsbsbF-3.3384533541471213
sg1
(g5
g6
Ntp742
Rp743
F1.1536743546679695
sg1
(g30
g6
Ntp744
Rp745
F0.44617668545383427
sg1
(g77
g6
Ntp746
Rp747
F0.2764287208551589
sg1
(g21
g6
Ntp748
Rp749
F0.6389492348370385
sg1
(g24
g6
Ntp750
Rp751
F0.7705332131890429
sg1
(g27
g6
Ntp752
Rp753
F0.28433568945688575
sg1
(g9
g6
Ntp754
Rp755
F6.5897877610602436
sg1
(g12
g6
Ntp756
Rp757
F-0.6621340146207908
stp758
Rp759
ag1
(g2
g3
(dp760
g1
(g80
g6
Ntp761
Rp762
F-0.5980510787524375
sg1
(g27
g6
Ntp763
Rp764
F0.28433568945688575
sg1
(g24
g6
Ntp765
Rp766
F0.8998060526835658
sg1
(g77
g6
Ntp767
Rp768
F0.6073493908397904
sg1
(g15
g6
Ntp769
Rp770
F1.5034089998697824
sg1
(g12
g6
Ntp771
Rp772
F-0.6621340146207908
sg1
(g33
g6
Ntp773
Rp774
(dp775
g37
g1
(g38
g6
Ntp776
Rp777
(dp778
g42
g1
(g43
g6
Ntp779
Rp780
(dp781
g47
I00
sbsg48
g1
(g49
g50
(I2
g51
tp782
tp783
Rp784
sg55
g1
(g56
g6
Ntp785
Rp786
sg59
g1
(g60
g6
Ntp787
Rp788
(dp789
g64
Nsbsg65
g1
(g66
g6
Ntp790
Rp791
(dp792
g70
Nsbsg71
g1
(g72
g6
Ntp793
Rp794
(dp795
g76
g124
sbsbsbF-3.3746224014493054
sg1
(g30
g6
Ntp796
Rp797
F0.44617668545383427
sg1
(g9
g6
Ntp798
Rp799
F6.576772926535384
sg1
(g21
g6
Ntp800
Rp801
F0.6389492348370385
sg1
(g5
g6
Ntp802
Rp803
F1.1536743546679695
sg1
(g18
g6
Ntp804
Rp805
F-0.8495533924780118
stp806
Rp807
ag1
(g2
g3
(dp808
g1
(g15
g6
Ntp809
Rp810
F1.5034089998697824
sg1
(g24
g6
Ntp811
Rp812
F0.8998060526835658
sg1
(g80
g6
Ntp813
Rp814
F-0.3805343068772121
sg1
(g30
g6
Ntp815
Rp816
F0.44617668545383427
sg1
(g12
g6
Ntp817
Rp818
F-0.6621340146207908
sg1
(g9
g6
Ntp819
Rp820
F6.669065436716888
sg1
(g33
g6
Ntp821
Rp822
(dp823
g37
g1
(g38
g6
Ntp824
Rp825
(dp826
g42
g1
(g43
g6
Ntp827
Rp828
(dp829
g47
I01
sbsg48
g1
(g49
g50
(I7
g109
tp830
tp831
Rp832
sg55
g1
(g56
g6
Ntp833
Rp834
sg59
g1
(g60
g6
Ntp835
Rp836
(dp837
g64
Nsbsg65
g1
(g66
g6
Ntp838
Rp839
(dp840
g70
Nsbsg71
g1
(g72
g6
Ntp841
Rp842
(dp843
g76
g124
sbsbsbF-3.484973115556653
sg1
(g18
g6
Ntp844
Rp845
F-0.1789455529154142
sg1
(g27
g6
Ntp846
Rp847
F0.28433568945688575
sg1
(g77
g6
Ntp848
Rp849
F0.738850104204888
sg1
(g5
g6
Ntp850
Rp851
F1.1536743546679695
sg1
(g21
g6
Ntp852
Rp853
F0.6389492348370385
stp854
Rp855
ag1
(g2
g3
(dp856
g1
(g12
g6
Ntp857
Rp858
F-0.6621340146207908
sg1
(g9
g6
Ntp859
Rp860
F6.652610079059491
sg1
(g77
g6
Ntp861
Rp862
F0.5114611852508653
sg1
(g33
g6
Ntp863
Rp864
(dp865
g37
g1
(g38
g6
Ntp866
Rp867
(dp868
g42
g1
(g43
g6
Ntp869
Rp870
(dp871
g47
I01
sbsg48
g1
(g49
g50
(I3
g109
tp872
tp873
Rp874
sg55
g1
(g56
g6
Ntp875
Rp876
sg59
g1
(g60
g6
Ntp877
Rp878
(dp879
g64
Nsbsg65
g1
(g66
g6
Ntp880
Rp881
(dp882
g70
I2
sbsg71
g1
(g72
g6
Ntp883
Rp884
(dp885
g76
g159
sbsbsbF-3.4218471089922033
sg1
(g30
g6
Ntp886
Rp887
F0.44617668545383427
sg1
(g27
g6
Ntp888
Rp889
F0.28433568945688575
sg1
(g15
g6
Ntp890
Rp891
F1.5034089998697824
sg1
(g24
g6
Ntp892
Rp893
F0.8998060526835658
sg1
(g5
g6
Ntp894
Rp895
F1.1536743546679695
sg1
(g18
g6
Ntp896
Rp897
F-0.6144285249391591
sg1
(g21
g6
Ntp898
Rp899
F0.6389492348370385
sg1
(g80
g6
Ntp900
Rp901
F-0.49619980861634
stp902
Rp903
ag1
(g2
g3
(dp904
g1
(g27
g6
Ntp905
Rp906
F0.28433568945688575
sg1
(g77
g6
Ntp907
Rp908
F0.584100242441435
sg1
(g5
g6
Ntp909
Rp910
F1.1536743546679695
sg1
(g15
g6
Ntp911
Rp912
F1.5034089998697824
sg1
(g18
g6
Ntp913
Rp914
F0.03487604214522377
sg1
(g21
g6
Ntp915
Rp916
F0.6389492348370385
sg1
(g24
g6
Ntp917
Rp918
F0.8998060526835658
sg1
(g12
g6
Ntp919
Rp920
F-0.6621340146207908
sg1
(g80
g6
Ntp921
Rp922
F-0.3468380436871729
sg1
(g9
g6
Ntp923
Rp924
F6.786786001252089
sg1
(g33
g6
Ntp925
Rp926
(dp927
g37
g1
(g38
g6
Ntp928
Rp929
(dp930
g42
g1
(g43
g6
Ntp931
Rp932
(dp933
g47
I01
sbsg48
g1
(g49
g50
(I8
g124
tp934
tp935
Rp936
sg55
g1
(g56
g6
Ntp937
Rp938
sg59
g1
(g60
g6
Ntp939
Rp940
(dp941
g64
I11
sbsg65
g1
(g66
g6
Ntp942
Rp943
(dp944
g70
Nsbsg71
g1
(g72
g6
Ntp945
Rp946
(dp947
g76
NsbsbsbF-3.380093187783886
sg1
(g30
g6
Ntp948
Rp949
F0.44617668545383427
stp950
Rp951
ag1
(g2
g3
(dp952
g1
(g77
g6
Ntp953
Rp954
F0.5883017818267197
sg1
(g5
g6
Ntp955
Rp956
F1.1536743546679695
sg1
(g12
g6
Ntp957
Rp958
F-0.6621340146207908
sg1
(g80
g6
Ntp959
Rp960
F-0.3300638366444674
sg1
(g15
g6
Ntp961
Rp962
F1.5034089998697824
sg1
(g21
g6
Ntp963
Rp964
F0.6389492348370385
sg1
(g30
g6
Ntp965
Rp966
F0.44617668545383427
sg1
(g9
g6
Ntp967
Rp968
F6.880108391709362
sg1
(g33
g6
Ntp969
Rp970
(dp971
g37
g1
(g38
g6
Ntp972
Rp973
(dp974
g42
g1
(g43
g6
Ntp975
Rp976
(dp977
g47
I01
sbsg48
g1
(g49
g50
(I12
g109
tp978
tp979
Rp980
sg55
g1
(g56
g6
Ntp981
Rp982
sg59
g1
(g60
g6
Ntp983
Rp984
(dp985
g64
Nsbsg65
g1
(g66
g6
Ntp986
Rp987
(dp988
g70
Nsbsg71
g1
(g72
g6
Ntp989
Rp990
(dp991
g76
NsbsbsbF-3.380093187783886
sg1
(g18
g6
Ntp992
Rp993
F0.198285466352485
sg1
(g27
g6
Ntp994
Rp995
F0.28433568945688575
sg1
(g24
g6
Ntp996
Rp997
F0.8998060526835658
stp998
Rp999
a.