(lp0
ccopy_reg
_reconstructor
p1
(cinfrastructure
Counter
p2
c__builtin__
dict
p3
(dp4
tp5
Rp6
ag1
(g2
g3
(dp7
g1
(cfeatures
ScrewCount
p8
c__builtin__
object
p9
Ntp10
Rp11
F2.224949027797669
sg1
(cfeatures
WildValue
p12
g9
Ntp13
Rp14
F0.9908348424705509
sg1
(cfeatures
PlaySkip
p15
g9
Ntp16
Rp17
F0.41800022313565277
sg1
(cfeatures
PlayScrew
p18
g9
Ntp19
Rp20
F0.8347041168426002
sg1
(cfeatures
WildSuit
p21
g9
Ntp22
Rp23
F0.7272044280776326
sg1
(cfeatures
SkipCount
p24
g9
Ntp25
Rp26
F1.181438815035842
sg1
(cfeatures
Illegality
p27
g9
Ntp28
Rp29
(dp30
S'checker'
p31
g1
(cinfrastructure
Checker
p32
g9
Ntp33
Rp34
(dp35
S'basicValueConstraint'
p36
g1
(cconstraints
BasicValueConstraint
p37
g9
Ntp38
Rp39
(dp40
S'greater'
p41
I01
sbsS'lastCard'
p42
g1
(cinfrastructure
Card
p43
c__builtin__
tuple
p44
(I6
S'H'
p45
tp46
tp47
Rp48
sS'basicSuitConstraint'
p49
g1
(cconstraints
BasicSuitConstraint
p50
g9
Ntp51
Rp52
sS'wildValueConstraint'
p53
g1
(cconstraints
WildValueConstraint
p54
g9
Ntp55
Rp56
(dp57
S'wildValue'
p58
I13
sbsS'poisonDistanceConstraint'
p59
g1
(cconstraints
PoisonDistanceConstraint
p60
g9
Ntp61
Rp62
(dp63
S'dist'
p64
NsbsS'wildSuitEffect'
p65
g1
(cconstraints
WildSuitEffect
p66
g9
Ntp67
Rp68
(dp69
S'wildSuit'
p70
S'S'
p71
sbsbsbF-4.811997432365443
sg1
(cfeatures
HighCount
p72
g9
Ntp73
Rp74
F0.530623263970201
sg1
(cfeatures
PoisonCount
p75
g9
Ntp76
Rp77
F-2.0032817698641248
sg1
(cfeatures
MajorityPercent
p78
g9
Ntp79
Rp80
F8.150397994242851
sg1
(cfeatures
SizeofHand
p81
g9
Ntp82
Rp83
F-1.23632370937583
sg1
(cfeatures
LowCount
p84
g9
Ntp85
Rp86
F0.01486097146430937
stp87
Rp88
ag1
(g2
g3
(dp89
g1
(g18
g9
Ntp90
Rp91
F0.7065046663366111
sg1
(g81
g9
Ntp92
Rp93
F-0.8339835833403828
sg1
(g72
g9
Ntp94
Rp95
F1.2733136144046362
sg1
(g75
g9
Ntp96
Rp97
F-0.6818965449435094
sg1
(g24
g9
Ntp98
Rp99
F0.9068050501501469
sg1
(g84
g9
Ntp100
Rp101
F-0.35061156671227806
sg1
(g78
g9
Ntp102
Rp103
F9.204353708224394
sg1
(g12
g9
Ntp104
Rp105
F0.9981886895145697
sg1
(g27
g9
Ntp106
Rp107
(dp108
g31
g1
(g32
g9
Ntp109
Rp110
(dp111
g36
g1
(g37
g9
Ntp112
Rp113
(dp114
g41
I01
sbsg42
g1
(g43
g44
(I6
S'D'
p115
tp116
tp117
Rp118
sg49
g1
(g50
g9
Ntp119
Rp120
sg53
g1
(g54
g9
Ntp121
Rp122
(dp123
g58
I5
sbsg59
g1
(g60
g9
Ntp124
Rp125
(dp126
g64
Nsbsg65
g1
(g66
g9
Ntp127
Rp128
(dp129
g70
S'C'
p130
sbsbsbF-4.721867538726908
sg1
(g21
g9
Ntp131
Rp132
F1.5127457459402704
sg1
(g15
g9
Ntp133
Rp134
F0.3334795421001096
sg1
(g8
g9
Ntp135
Rp136
F2.3159778314144575
stp137
Rp138
ag1
(g2
g3
(dp139
g1
(g8
g9
Ntp140
Rp141
F2.590521338909618
sg1
(g12
g9
Ntp142
Rp143
F1.2391826291819457
sg1
(g81
g9
Ntp144
Rp145
F-2.040269155021991
sg1
(g15
g9
Ntp146
Rp147
F0.5937199255191168
sg1
(g27
g9
Ntp148
Rp149
(dp150
g31
g1
(g32
g9
Ntp151
Rp152
(dp153
g36
g1
(g37
g9
Ntp154
Rp155
(dp156
g41
I01
sbsg42
g1
(g43
g44
(I6
g71
tp157
tp158
Rp159
sg49
g1
(g50
g9
Ntp160
Rp161
sg53
g1
(g54
g9
Ntp162
Rp163
(dp164
g58
I14
sbsg59
g1
(g60
g9
Ntp165
Rp166
(dp167
g64
Nsbsg65
g1
(g66
g9
Ntp168
Rp169
(dp170
g70
NsbsbsbF-4.234045219130227
sg1
(g24
g9
Ntp171
Rp172
F0.9993179175185601
sg1
(g18
g9
Ntp173
Rp174
F0.5361934781756549
sg1
(g72
g9
Ntp175
Rp176
F-0.4912429436239721
sg1
(g78
g9
Ntp177
Rp178
F8.032978222488067
sg1
(g21
g9
Ntp179
Rp180
F0.7213142249768264
sg1
(g75
g9
Ntp181
Rp182
F-1.2235392764740256
sg1
(g84
g9
Ntp183
Rp184
F-1.7346763705303194
stp185
Rp186
ag1
(g2
g3
(dp187
g1
(g8
g9
Ntp188
Rp189
F2.9919168632924222
sg1
(g21
g9
Ntp190
Rp191
F1.6691485362616196
sg1
(g12
g9
Ntp192
Rp193
F1.0089349846281295
sg1
(g84
g9
Ntp194
Rp195
F-1.229804117982244
sg1
(g27
g9
Ntp196
Rp197
(dp198
g31
g1
(g32
g9
Ntp199
Rp200
(dp201
g36
g1
(g37
g9
Ntp202
Rp203
(dp204
g41
I00
sbsg42
g1
(g43
g44
(I5
g130
tp205
tp206
Rp207
sg49
g1
(g50
g9
Ntp208
Rp209
sg53
g1
(g54
g9
Ntp210
Rp211
(dp212
g58
I2
sbsg59
g1
(g60
g9
Ntp213
Rp214
(dp215
g64
I1
sbsg65
g1
(g66
g9
Ntp216
Rp217
(dp218
g70
NsbsbsbF-4.914067350937098
sg1
(g75
g9
Ntp219
Rp220
F-0.392322486724293
sg1
(g81
g9
Ntp221
Rp222
F0.3321379914302934
sg1
(g72
g9
Ntp223
Rp224
F0.7332415345547023
sg1
(g15
g9
Ntp225
Rp226
F0.3419968873392418
sg1
(g18
g9
Ntp227
Rp228
F1.0927722945526805
sg1
(g24
g9
Ntp229
Rp230
F0.8874503570660109
sg1
(g78
g9
Ntp231
Rp232
F8.572263564738682
stp233
Rp234
ag1
(g2
g3
(dp235
g1
(g24
g9
Ntp236
Rp237
F1.3757496122720703
sg1
(g8
g9
Ntp238
Rp239
F3.2616980992152893
sg1
(g78
g9
Ntp240
Rp241
F8.167385968869254
sg1
(g18
g9
Ntp242
Rp243
F1.1804405399975335
sg1
(g27
g9
Ntp244
Rp245
(dp246
g31
g1
(g32
g9
Ntp247
Rp248
(dp249
g36
g1
(g37
g9
Ntp250
Rp251
(dp252
g41
I00
sbsg42
g1
(g43
g44
(I7
g45
tp253
tp254
Rp255
sg49
g1
(g50
g9
Ntp256
Rp257
sg53
g1
(g54
g9
Ntp258
Rp259
(dp260
g58
I8
sbsg59
g1
(g60
g9
Ntp261
Rp262
(dp263
g64
Nsbsg65
g1
(g66
g9
Ntp264
Rp265
(dp266
g70
g130
sbsbsbF-4.741991107932416
sg1
(g21
g9
Ntp267
Rp268
F1.5990572082814363
sg1
(g15
g9
Ntp269
Rp270
F0.36497168868050744
sg1
(g81
g9
Ntp271
Rp272
F-0.7812568060831554
sg1
(g12
g9
Ntp273
Rp274
F0.9221340302883239
sg1
(g72
g9
Ntp275
Rp276
F0.3719663071738042
sg1
(g75
g9
Ntp277
Rp278
F-0.8116590728210699
sg1
(g84
g9
Ntp279
Rp280
F-0.4722448807618231
stp281
Rp282
ag1
(g2
g3
(dp283
g1
(g18
g9
Ntp284
Rp285
F0.6671978769023431
sg1
(g72
g9
Ntp286
Rp287
F0.5607952015080017
sg1
(g75
g9
Ntp288
Rp289
F-0.6582829872274125
sg1
(g81
g9
Ntp290
Rp291
F-1.408128970466976
sg1
(g24
g9
Ntp292
Rp293
F1.5154481572796594
sg1
(g8
g9
Ntp294
Rp295
F2.1861436839405934
sg1
(g12
g9
Ntp296
Rp297
F0.1884481874132668
sg1
(g84
g9
Ntp298
Rp299
F-1.0983452193513896
sg1
(g27
g9
Ntp300
Rp301
(dp302
g31
g1
(g32
g9
Ntp303
Rp304
(dp305
g36
g1
(g37
g9
Ntp306
Rp307
(dp308
g41
I01
sbsg42
g1
(g43
g44
(I4
g45
tp309
tp310
Rp311
sg49
g1
(g50
g9
Ntp312
Rp313
sg53
g1
(g54
g9
Ntp314
Rp315
(dp316
g58
I6
sbsg59
g1
(g60
g9
Ntp317
Rp318
(dp319
g64
I2
sbsg65
g1
(g66
g9
Ntp320
Rp321
(dp322
g70
g130
sbsbsbF-4.762121363803243
sg1
(g21
g9
Ntp323
Rp324
F1.6433723167585594
sg1
(g15
g9
Ntp325
Rp326
F0.1561728213517088
sg1
(g78
g9
Ntp327
Rp328
F8.333946629145887
stp329
Rp330
ag1
(g2
g3
(dp331
g1
(g27
g9
Ntp332
Rp333
(dp334
g31
g1
(g32
g9
Ntp335
Rp336
(dp337
g36
g1
(g37
g9
Ntp338
Rp339
(dp340
g41
I01
sbsg42
g1
(g43
g44
(I10
g71
tp341
tp342
Rp343
sg49
g1
(g50
g9
Ntp344
Rp345
sg53
g1
(g54
g9
Ntp346
Rp347
(dp348
g58
I2
sbsg59
g1
(g60
g9
Ntp349
Rp350
(dp351
g64
Nsbsg65
g1
(g66
g9
Ntp352
Rp353
(dp354
g70
g130
sbsbsbF-5.474713211392257
sg1
(g15
g9
Ntp355
Rp356
F0.426268495460155
sg1
(g21
g9
Ntp357
Rp358
F1.1949911055312754
sg1
(g18
g9
Ntp359
Rp360
F1.2452865491330225
sg1
(g72
g9
Ntp361
Rp362
F1.2134273478919944
sg1
(g78
g9
Ntp363
Rp364
F8.549038409872704
sg1
(g75
g9
Ntp365
Rp366
F-0.933204044344137
sg1
(g24
g9
Ntp367
Rp368
F1.099605344762545
sg1
(g12
g9
Ntp369
Rp370
F1.215209412862744
sg1
(g8
g9
Ntp371
Rp372
F3.0445520021940697
sg1
(g81
g9
Ntp373
Rp374
F-1.5388137795987569
sg1
(g84
g9
Ntp375
Rp376
F-2.090724877995254
stp377
Rp378
ag1
(g2
g3
(dp379
g1
(g81
g9
Ntp380
Rp381
F-1.5084649264135892
sg1
(g12
g9
Ntp382
Rp383
F0.637426210163105
sg1
(g8
g9
Ntp384
Rp385
F1.8640321691853459
sg1
(g27
g9
Ntp386
Rp387
(dp388
g31
g1
(g32
g9
Ntp389
Rp390
(dp391
g36
g1
(g37
g9
Ntp392
Rp393
(dp394
g41
I01
sbsg42
g1
(g43
g44
(I12
g130
tp395
tp396
Rp397
sg49
g1
(g50
g9
Ntp398
Rp399
sg53
g1
(g54
g9
Ntp400
Rp401
(dp402
g58
I8
sbsg59
g1
(g60
g9
Ntp403
Rp404
(dp405
g64
Nsbsg65
g1
(g66
g9
Ntp406
Rp407
(dp408
g70
NsbsbsbF-4.471644231816779
sg1
(g15
g9
Ntp409
Rp410
F0.21335897175059843
sg1
(g24
g9
Ntp411
Rp412
F1.1222796036832365
sg1
(g18
g9
Ntp413
Rp414
F1.0985516409757108
sg1
(g72
g9
Ntp415
Rp416
F0.6893478620550336
sg1
(g21
g9
Ntp417
Rp418
F1.0873886898149199
sg1
(g75
g9
Ntp419
Rp420
F-0.4895394162619251
sg1
(g84
g9
Ntp421
Rp422
F-1.0121356781976054
sg1
(g78
g9
Ntp423
Rp424
F7.561892963307537
stp425
Rp426
ag1
(g2
g3
(dp427
g1
(g81
g9
Ntp428
Rp429
F-1.6391004665777988
sg1
(g24
g9
Ntp430
Rp431
F1.270773341420668
sg1
(g72
g9
Ntp432
Rp433
F0.3414275566585349
sg1
(g8
g9
Ntp434
Rp435
F2.8336379198585457
sg1
(g78
g9
Ntp436
Rp437
F7.942760399737503
sg1
(g12
g9
Ntp438
Rp439
F1.0900794273949361
sg1
(g27
g9
Ntp440
Rp441
(dp442
g31
g1
(g32
g9
Ntp443
Rp444
(dp445
g36
g1
(g37
g9
Ntp446
Rp447
(dp448
g41
I00
sbsg42
g1
(g43
g44
(I9
g71
tp449
tp450
Rp451
sg49
g1
(g50
g9
Ntp452
Rp453
sg53
g1
(g54
g9
Ntp454
Rp455
(dp456
g58
I4
sbsg59
g1
(g60
g9
Ntp457
Rp458
(dp459
g64
Nsbsg65
g1
(g66
g9
Ntp460
Rp461
(dp462
g70
g45
sbsbsbF-4.689683863010804
sg1
(g21
g9
Ntp463
Rp464
F1.322465035435506
sg1
(g84
g9
Ntp465
Rp466
F-1.0675396895000664
sg1
(g15
g9
Ntp467
Rp468
F0.06860455286567188
sg1
(g18
g9
Ntp469
Rp470
F0.5003712709328747
sg1
(g75
g9
Ntp471
Rp472
F-0.9012455873131364
stp473
Rp474
ag1
(g2
g3
(dp475
g1
(g24
g9
Ntp476
Rp477
F0.7532946178610782
sg1
(g72
g9
Ntp478
Rp479
F0.8669245059496996
sg1
(g18
g9
Ntp480
Rp481
F0.31018956375562695
sg1
(g78
g9
Ntp482
Rp483
F6.8775242849410345
sg1
(g81
g9
Ntp484
Rp485
F-1.8024503688723148
sg1
(g15
g9
Ntp486
Rp487
F0.19437690020113413
sg1
(g12
g9
Ntp488
Rp489
F0.8907806101269022
sg1
(g8
g9
Ntp490
Rp491
F2.8340566439796895
sg1
(g75
g9
Ntp492
Rp493
F-0.25879671755277206
sg1
(g27
g9
Ntp494
Rp495
(dp496
g31
g1
(g32
g9
Ntp497
Rp498
(dp499
g36
g1
(g37
g9
Ntp500
Rp501
(dp502
g41
I01
sbsg42
g1
(g43
g44
(I10
g115
tp503
tp504
Rp505
sg49
g1
(g50
g9
Ntp506
Rp507
sg53
g1
(g54
g9
Ntp508
Rp509
(dp510
g58
I12
sbsg59
g1
(g60
g9
Ntp511
Rp512
(dp513
g64
Nsbsg65
g1
(g66
g9
Ntp514
Rp515
(dp516
g70
g115
sbsbsbF-4.827491904097728
sg1
(g84
g9
Ntp517
Rp518
F-1.2516360097368937
sg1
(g21
g9
Ntp519
Rp520
F1.2567613968698248
stp521
Rp522
ag1
(g2
g3
(dp523
g1
(g27
g9
Ntp524
Rp525
(dp526
g31
g1
(g32
g9
Ntp527
Rp528
(dp529
g36
g1
(g37
g9
Ntp530
Rp531
(dp532
g41
I01
sbsg42
g1
(g43
g44
(I5
g45
tp533
tp534
Rp535
sg49
g1
(g50
g9
Ntp536
Rp537
sg53
g1
(g54
g9
Ntp538
Rp539
(dp540
g58
I12
sbsg59
g1
(g60
g9
Ntp541
Rp542
(dp543
g64
I2
sbsg65
g1
(g66
g9
Ntp544
Rp545
(dp546
g70
g130
sbsbsbF-4.79955449741314
sg1
(g15
g9
Ntp547
Rp548
F0.2957931106328415
sg1
(g21
g9
Ntp549
Rp550
F0.8455766026078884
sg1
(g18
g9
Ntp551
Rp552
F0.7113418760786517
sg1
(g72
g9
Ntp553
Rp554
F0.6714614124260965
sg1
(g78
g9
Ntp555
Rp556
F6.935916879939747
sg1
(g75
g9
Ntp557
Rp558
F-1.1025016619630332
sg1
(g81
g9
Ntp559
Rp560
F-1.3997165430700191
sg1
(g24
g9
Ntp561
Rp562
F0.8369139946815747
sg1
(g8
g9
Ntp563
Rp564
F2.55198091068693
sg1
(g12
g9
Ntp565
Rp566
F0.8258158748330071
sg1
(g84
g9
Ntp567
Rp568
F-1.457732675445185
stp569
Rp570
ag1
(g2
g3
(dp571
g1
(g15
g9
Ntp572
Rp573
F0.16989199903603336
sg1
(g81
g9
Ntp574
Rp575
F-0.2964326263653486
sg1
(g24
g9
Ntp576
Rp577
F0.7648138388691262
sg1
(g72
g9
Ntp578
Rp579
F0.32233029135381497
sg1
(g75
g9
Ntp580
Rp581
F-0.965476358271038
sg1
(g27
g9
Ntp582
Rp583
(dp584
g31
g1
(g32
g9
Ntp585
Rp586
(dp587
g36
g1
(g37
g9
Ntp588
Rp589
(dp590
g41
I01
sbsg42
g1
(g43
g44
(I11
g115
tp591
tp592
Rp593
sg49
g1
(g50
g9
Ntp594
Rp595
sg53
g1
(g54
g9
Ntp596
Rp597
(dp598
g58
Nsbsg59
g1
(g60
g9
Ntp599
Rp600
(dp601
g64
I2
sbsg65
g1
(g66
g9
Ntp602
Rp603
(dp604
g70
g71
sbsbsbF-4.522176814132289
sg1
(g84
g9
Ntp605
Rp606
F-1.1673248409652381
sg1
(g8
g9
Ntp607
Rp608
F2.739430937191512
sg1
(g12
g9
Ntp609
Rp610
F0.06854295266606426
sg1
(g78
g9
Ntp611
Rp612
F7.829839572020691
sg1
(g21
g9
Ntp613
Rp614
F0.15835991065825988
sg1
(g18
g9
Ntp615
Rp616
F0.8426737531213462
stp617
Rp618
ag1
(g2
g3
(dp619
g1
(g72
g9
Ntp620
Rp621
F0.5498999858417928
sg1
(g24
g9
Ntp622
Rp623
F0.7311439795285588
sg1
(g27
g9
Ntp624
Rp625
(dp626
g31
g1
(g32
g9
Ntp627
Rp628
(dp629
g36
g1
(g37
g9
Ntp630
Rp631
(dp632
g41
I00
sbsg42
g1
(g43
g44
(I14
g71
tp633
tp634
Rp635
sg49
g1
(g50
g9
Ntp636
Rp637
sg53
g1
(g54
g9
Ntp638
Rp639
(dp640
g58
I7
sbsg59
g1
(g60
g9
Ntp641
Rp642
(dp643
g64
I1
sbsg65
g1
(g66
g9
Ntp644
Rp645
(dp646
g70
g130
sbsbsbF-5.420744598149194
sg1
(g81
g9
Ntp647
Rp648
F-1.7585334970168671
sg1
(g78
g9
Ntp649
Rp650
F8.72653731078493
sg1
(g12
g9
Ntp651
Rp652
F0.5823379824103473
sg1
(g21
g9
Ntp653
Rp654
F1.4051002920085724
sg1
(g8
g9
Ntp655
Rp656
F3.0325808507466694
sg1
(g15
g9
Ntp657
Rp658
F0.10399869944993786
sg1
(g18
g9
Ntp659
Rp660
F1.166507056306469
sg1
(g84
g9
Ntp661
Rp662
F-1.18002284351471
sg1
(g75
g9
Ntp663
Rp664
F-0.2566117461537151
stp665
Rp666
ag1
(g2
g3
(dp667
g1
(g15
g9
Ntp668
Rp669
F0.143714475786751
sg1
(g18
g9
Ntp670
Rp671
F0.8083573639513482
sg1
(g24
g9
Ntp672
Rp673
F0.8574796193914006
sg1
(g72
g9
Ntp674
Rp675
F0.3597711420714927
sg1
(g75
g9
Ntp676
Rp677
F-1.2953405274551912
sg1
(g27
g9
Ntp678
Rp679
(dp680
g31
g1
(g32
g9
Ntp681
Rp682
(dp683
g36
g1
(g37
g9
Ntp684
Rp685
(dp686
g41
I00
sbsg42
g1
(g43
g44
(I10
g71
tp687
tp688
Rp689
sg49
g1
(g50
g9
Ntp690
Rp691
sg53
g1
(g54
g9
Ntp692
Rp693
(dp694
g58
Nsbsg59
g1
(g60
g9
Ntp695
Rp696
(dp697
g64
Nsbsg65
g1
(g66
g9
Ntp698
Rp699
(dp700
g70
g130
sbsbsbF-4.019430871226192
sg1
(g84
g9
Ntp701
Rp702
F-2.40200209350488
sg1
(g81
g9
Ntp703
Rp704
F-1.6972322127059192
sg1
(g78
g9
Ntp705
Rp706
F8.47244577295603
sg1
(g12
g9
Ntp707
Rp708
F0.7752477416261492
sg1
(g21
g9
Ntp709
Rp710
F0.20388053138076953
sg1
(g8
g9
Ntp711
Rp712
F2.345389791556657
stp713
Rp714
ag1
(g2
g3
(dp715
g1
(g75
g9
Ntp716
Rp717
F-1.531962988714067
sg1
(g24
g9
Ntp718
Rp719
F0.6193224454863296
sg1
(g27
g9
Ntp720
Rp721
(dp722
g31
g1
(g32
g9
Ntp723
Rp724
(dp725
g36
g1
(g37
g9
Ntp726
Rp727
(dp728
g41
I00
sbsg42
g1
(g43
g44
(I11
g130
tp729
tp730
Rp731
sg49
g1
(g50
g9
Ntp732
Rp733
sg53
g1
(g54
g9
Ntp734
Rp735
(dp736
g58
I9
sbsg59
g1
(g60
g9
Ntp737
Rp738
(dp739
g64
I1
sbsg65
g1
(g66
g9
Ntp740
Rp741
(dp742
g70
g130
sbsbsbF-4.424812133505675
sg1
(g8
g9
Ntp743
Rp744
F2.446017159350038
sg1
(g78
g9
Ntp745
Rp746
F7.9178932546181775
sg1
(g12
g9
Ntp747
Rp748
F0.4585749547582235
sg1
(g21
g9
Ntp749
Rp750
F0.0677405280477914
sg1
(g81
g9
Ntp751
Rp752
F-1.895079736284174
sg1
(g15
g9
Ntp753
Rp754
F-0.09515606847455463
sg1
(g18
g9
Ntp755
Rp756
F0.7681900841448364
sg1
(g72
g9
Ntp757
Rp758
F0.39636352982001577
sg1
(g84
g9
Ntp759
Rp760
F-0.6570362564686897
stp761
Rp762
ag1
(g2
g3
(dp763
g1
(g12
g9
Ntp764
Rp765
F0.5771655603750379
sg1
(g27
g9
Ntp766
Rp767
(dp768
g31
g1
(g32
g9
Ntp769
Rp770
(dp771
g36
g1
(g37
g9
Ntp772
Rp773
(dp774
g41
I00
sbsg42
g1
(g43
g44
(I2
g115
tp775
tp776
Rp777
sg49
g1
(g50
g9
Ntp778
Rp779
sg53
g1
(g54
g9
Ntp780
Rp781
(dp782
g58
I4
sbsg59
g1
(g60
g9
Ntp783
Rp784
(dp785
g64
I2
sbsg65
g1
(g66
g9
Ntp786
Rp787
(dp788
g70
g115
sbsbsbF-4.937595174505294
sg1
(g8
g9
Ntp789
Rp790
F2.611041506197063
sg1
(g15
g9
Ntp791
Rp792
F0.03167335839569398
sg1
(g18
g9
Ntp793
Rp794
F0.8310741902094555
sg1
(g78
g9
Ntp795
Rp796
F10.027287589786727
sg1
(g72
g9
Ntp797
Rp798
F1.0685389832119396
sg1
(g75
g9
Ntp799
Rp800
F-0.28111294315230484
sg1
(g24
g9
Ntp801
Rp802
F0.6415993955941987
sg1
(g84
g9
Ntp803
Rp804
F-1.612247461597593
sg1
(g81
g9
Ntp805
Rp806
F-0.5698442046178497
sg1
(g21
g9
Ntp807
Rp808
F1.3517197263903848
stp809
Rp810
ag1
(g2
g3
(dp811
g1
(g75
g9
Ntp812
Rp813
F-1.5862745651895862
sg1
(g24
g9
Ntp814
Rp815
F1.1893074434910509
sg1
(g81
g9
Ntp816
Rp817
F0.4749549090720935
sg1
(g27
g9
Ntp818
Rp819
(dp820
g31
g1
(g32
g9
Ntp821
Rp822
(dp823
g36
g1
(g37
g9
Ntp824
Rp825
(dp826
g41
I01
sbsg42
g1
(g43
g44
(I5
g71
tp827
tp828
Rp829
sg49
g1
(g50
g9
Ntp830
Rp831
sg53
g1
(g54
g9
Ntp832
Rp833
(dp834
g58
I14
sbsg59
g1
(g60
g9
Ntp835
Rp836
(dp837
g64
I1
sbsg65
g1
(g66
g9
Ntp838
Rp839
(dp840
g70
g115
sbsbsbF-4.523812411442873
sg1
(g78
g9
Ntp841
Rp842
F9.101617719708473
sg1
(g12
g9
Ntp843
Rp844
F1.4527659962215083
sg1
(g8
g9
Ntp845
Rp846
F2.312286793502511
sg1
(g21
g9
Ntp847
Rp848
F0.027605393299156185
sg1
(g15
g9
Ntp849
Rp850
F0.19492255023436544
sg1
(g18
g9
Ntp851
Rp852
F1.2095180755809625
sg1
(g72
g9
Ntp853
Rp854
F0.04941822828876988
sg1
(g84
g9
Ntp855
Rp856
F-1.268074193360841
stp857
Rp858
ag1
(g2
g3
(dp859
g1
(g18
g9
Ntp860
Rp861
F1.0704735288701714
sg1
(g72
g9
Ntp862
Rp863
F-0.36591356348383614
sg1
(g24
g9
Ntp864
Rp865
F0.895980736058772
sg1
(g84
g9
Ntp866
Rp867
F-1.0344310901734663
sg1
(g8
g9
Ntp868
Rp869
F2.6483463954610995
sg1
(g78
g9
Ntp870
Rp871
F6.867237215955881
sg1
(g27
g9
Ntp872
Rp873
(dp874
g31
g1
(g32
g9
Ntp875
Rp876
(dp877
g36
g1
(g37
g9
Ntp878
Rp879
(dp880
g41
I01
sbsg42
g1
(g43
g44
(I14
g130
tp881
tp882
Rp883
sg49
g1
(g50
g9
Ntp884
Rp885
sg53
g1
(g54
g9
Ntp886
Rp887
(dp888
g58
I14
sbsg59
g1
(g60
g9
Ntp889
Rp890
(dp891
g64
I2
sbsg65
g1
(g66
g9
Ntp892
Rp893
(dp894
g70
g115
sbsbsbF-4.189798090622518
sg1
(g75
g9
Ntp895
Rp896
F-0.6199129664115723
sg1
(g21
g9
Ntp897
Rp898
F0.9172319869156346
sg1
(g81
g9
Ntp899
Rp900
F-1.5659644912217032
sg1
(g15
g9
Ntp901
Rp902
F-0.09507631306274718
sg1
(g12
g9
Ntp903
Rp904
F0.9099331803205677
stp905
Rp906
ag1
(g2
g3
(dp907
g1
(g78
g9
Ntp908
Rp909
F9.513367781035239
sg1
(g8
g9
Ntp910
Rp911
F2.8671908998545628
sg1
(g12
g9
Ntp912
Rp913
F1.2595647745755219
sg1
(g81
g9
Ntp914
Rp915
F-0.929793350800886
sg1
(g72
g9
Ntp916
Rp917
F0.9601224141546162
sg1
(g27
g9
Ntp918
Rp919
(dp920
g31
g1
(g32
g9
Ntp921
Rp922
(dp923
g36
g1
(g37
g9
Ntp924
Rp925
(dp926
g41
I00
sbsg42
g1
(g43
g44
(I5
g130
tp927
tp928
Rp929
sg49
g1
(g50
g9
Ntp930
Rp931
sg53
g1
(g54
g9
Ntp932
Rp933
(dp934
g58
I3
sbsg59
g1
(g60
g9
Ntp935
Rp936
(dp937
g64
Nsbsg65
g1
(g66
g9
Ntp938
Rp939
(dp940
g70
g71
sbsbsbF-4.425698426036343
sg1
(g21
g9
Ntp941
Rp942
F0.39250565166365875
sg1
(g18
g9
Ntp943
Rp944
F0.41111595592467465
sg1
(g84
g9
Ntp945
Rp946
F-1.5673406886246886
sg1
(g75
g9
Ntp947
Rp948
F-1.4280516466224702
sg1
(g15
g9
Ntp949
Rp950
F0.2174039752322672
sg1
(g24
g9
Ntp951
Rp952
F0.5673584547936055
stp953
Rp954
a.